; Function Attrs: null_pointer_is_valid sspstrong uwtable
define internal i32 @dissect_ngap(ptr noundef %0, ptr noundef %1, ptr noundef %2, ptr readnone captures(none) %3) #0 {
  %5 = alloca %struct._asn1_ctx_t, align 8
  %6 = getelementptr inbounds nuw i8, ptr %1, i64 8
  %7 = load ptr, ptr %6, align 8
  tail call void @col_set_str(ptr noundef %7, i32 noundef 35, ptr noundef nonnull @.str.57)
  %8 = load ptr, ptr %6, align 8
  tail call void @col_clear(ptr noundef %8, i32 noundef 25)
  %9 = getelementptr inbounds nuw i8, ptr %1, i64 408
  %10 = load ptr, ptr %9, align 8
  %11 = tail call noalias dereferenceable_or_null(4) ptr @wmem_alloc(ptr noundef %10, i64 noundef 4) #13
  store i32 0, ptr %11, align 4
  %12 = load i32, ptr @proto_ngap, align 4
  %13 = tail call ptr @proto_tree_add_item(ptr noundef %2, i32 noundef %12, ptr noundef %0, i32 noundef 0, i32 noundef -1, i32 noundef 0)
  %14 = load i32, ptr @ett_ngap, align 4
  %15 = tail call ptr @proto_item_add_subtree(ptr noundef %13, i32 noundef %14)
  store ptr %15, ptr @top_tree, align 8
  %16 = load ptr, ptr %9, align 8
  %17 = load i32, ptr @proto_ngap, align 4
  %18 = tail call ptr @p_get_proto_data(ptr noundef %16, ptr noundef %1, i32 noundef %17, i32 noundef 0)
  %.not.i = icmp eq ptr %18, null
  br i1 %.not.i, label %19, label %ngap_get_private_data.exit

19:                                               ; preds = %4
  %20 = load ptr, ptr %9, align 8
  %21 = tail call noalias dereferenceable_or_null(72) ptr @wmem_alloc0(ptr noundef %20, i64 noundef 72) #13
  %22 = getelementptr inbounds nuw i8, ptr %21, i64 24
  store i32 -1, ptr %22, align 8
  %23 = getelementptr inbounds nuw i8, ptr %21, i64 56
  store i8 -1, ptr %23, align 8
  %24 = load ptr, ptr %9, align 8
  %25 = load i32, ptr @proto_ngap, align 4
  tail call void @p_add_proto_data(ptr noundef %24, ptr noundef %1, i32 noundef %25, i32 noundef 0, ptr noundef %21)
  br label %ngap_get_private_data.exit

ngap_get_private_data.exit:                       ; preds = %4, %19
  %.0.i = phi ptr [ %18, %4 ], [ %21, %19 ]
  %26 = getelementptr inbounds nuw i8, ptr %.0.i, i64 64
  store ptr %11, ptr %26, align 8
  %27 = load ptr, ptr %9, align 8
  %28 = load i32, ptr @proto_ngap, align 4
  %29 = tail call ptr @p_get_proto_data(ptr noundef %27, ptr noundef %1, i32 noundef %28, i32 noundef 0)
  %.not.i37 = icmp eq ptr %29, null
  br i1 %.not.i37, label %30, label %ngap_get_private_data.exit39

30:                                               ; preds = %ngap_get_private_data.exit
  %31 = load ptr, ptr %9, align 8
  %32 = tail call noalias dereferenceable_or_null(72) ptr @wmem_alloc0(ptr noundef %31, i64 noundef 72) #13
  %33 = getelementptr inbounds nuw i8, ptr %32, i64 24
  store i32 -1, ptr %33, align 8
  %34 = getelementptr inbounds nuw i8, ptr %32, i64 56
  store i8 -1, ptr %34, align 8
  %35 = load ptr, ptr %9, align 8
  %36 = load i32, ptr @proto_ngap, align 4
  tail call void @p_add_proto_data(ptr noundef %35, ptr noundef %1, i32 noundef %36, i32 noundef 0, ptr noundef %32)
  br label %ngap_get_private_data.exit39

ngap_get_private_data.exit39:                     ; preds = %ngap_get_private_data.exit, %30
  %.0.i38 = phi ptr [ %29, %ngap_get_private_data.exit ], [ %32, %30 ]
  %37 = tail call ptr @find_or_create_conversation(ptr noundef %1)
  %38 = load i32, ptr @proto_ngap, align 4
  %39 = tail call ptr @conversation_get_proto_data(ptr noundef %37, i32 noundef %38)
  store ptr %39, ptr %.0.i38, align 8
  %.not = icmp eq ptr %39, null
  br i1 %.not, label %40, label %96

40:                                               ; preds = %ngap_get_private_data.exit39
  %41 = tail call ptr @wmem_file_scope()
  %42 = tail call noalias dereferenceable_or_null(80) ptr @wmem_alloc0(ptr noundef %41, i64 noundef 80) #13
  store ptr %42, ptr %.0.i38, align 8
  %43 = tail call ptr @wmem_file_scope()
  %44 = load ptr, ptr %.0.i38, align 8
  %45 = getelementptr inbounds nuw i8, ptr %1, i64 208
  %46 = load i32, ptr %45, align 8
  %47 = getelementptr inbounds nuw i8, ptr %1, i64 212
  %48 = load i32, ptr %47, align 4
  %49 = getelementptr inbounds nuw i8, ptr %1, i64 216
  %50 = load ptr, ptr %49, align 8
  tail call void @llvm.memset.p0.i64(ptr noundef align 8 dereferenceable(24) %44, i8 0, i64 24, i1 false)
  store i32 %46, ptr %44, align 8
  %51 = icmp eq i32 %48, 0
  br i1 %51, label %copy_address_wmem.exit, label %52

52:                                               ; preds = %40
  %53 = sext i32 %48 to i64
  %54 = tail call ptr @wmem_memdup(ptr noundef %43, ptr noundef %50, i64 noundef %53) #14
  %55 = getelementptr inbounds nuw i8, ptr %44, i64 16
  store ptr %54, ptr %55, align 8
  %56 = getelementptr inbounds nuw i8, ptr %44, i64 8
  store ptr %54, ptr %56, align 8
  %57 = getelementptr inbounds nuw i8, ptr %44, i64 4
  store i32 %48, ptr %57, align 4
  br label %copy_address_wmem.exit

copy_address_wmem.exit:                           ; preds = %40, %52
  %58 = getelementptr inbounds nuw i8, ptr %1, i64 284
  %59 = load i32, ptr %58, align 4
  %60 = load ptr, ptr %.0.i38, align 8
  %61 = getelementptr inbounds nuw i8, ptr %60, i64 24
  store i32 %59, ptr %61, align 8
  %62 = load ptr, ptr %.0.i38, align 8
  %63 = getelementptr inbounds nuw i8, ptr %62, i64 28
  store i32 -1, ptr %63, align 4
  %64 = tail call ptr @wmem_file_scope()
  %65 = load ptr, ptr %.0.i38, align 8
  %66 = getelementptr inbounds nuw i8, ptr %65, i64 32
  %67 = getelementptr inbounds nuw i8, ptr %1, i64 232
  %68 = load i32, ptr %67, align 8
  %69 = getelementptr inbounds nuw i8, ptr %1, i64 236
  %70 = load i32, ptr %69, align 4
  %71 = getelementptr inbounds nuw i8, ptr %1, i64 240
  %72 = load ptr, ptr %71, align 8
  tail call void @llvm.memset.p0.i64(ptr noundef nonnull align 8 dereferenceable(24) %66, i8 0, i64 24, i1 false)
  store i32 %68, ptr %66, align 8
  %73 = icmp eq i32 %70, 0
  br i1 %73, label %copy_address_wmem.exit40, label %74

74:                                               ; preds = %copy_address_wmem.exit
  %75 = sext i32 %70 to i64
  %76 = tail call ptr @wmem_memdup(ptr noundef %64, ptr noundef %72, i64 noundef %75) #14
  %77 = getelementptr inbounds nuw i8, ptr %65, i64 48
  store ptr %76, ptr %77, align 8
  %78 = getelementptr inbounds nuw i8, ptr %65, i64 40
  store ptr %76, ptr %78, align 8
  %79 = getelementptr inbounds nuw i8, ptr %65, i64 36
  store i32 %70, ptr %79, align 4
  br label %copy_address_wmem.exit40

copy_address_wmem.exit40:                         ; preds = %copy_address_wmem.exit, %74
  %80 = getelementptr inbounds nuw i8, ptr %1, i64 288
  %81 = load i32, ptr %80, align 8
  %82 = load ptr, ptr %.0.i38, align 8
  %83 = getelementptr inbounds nuw i8, ptr %82, i64 56
  store i32 %81, ptr %83, align 8
  %84 = load ptr, ptr %.0.i38, align 8
  %85 = getelementptr inbounds nuw i8, ptr %84, i64 60
  store i32 -1, ptr %85, align 4
  %86 = tail call ptr @wmem_file_scope()
  %87 = tail call noalias ptr @wmem_map_new(ptr noundef %86, ptr noundef nonnull @wmem_int64_hash, ptr noundef nonnull @g_int64_equal)
  %88 = load ptr, ptr %.0.i38, align 8
  %89 = getelementptr inbounds nuw i8, ptr %88, i64 64
  store ptr %87, ptr %89, align 8
  %90 = tail call ptr @wmem_file_scope()
  %91 = tail call noalias ptr @wmem_tree_new(ptr noundef %90)
  %92 = load ptr, ptr %.0.i38, align 8
  %93 = getelementptr inbounds nuw i8, ptr %92, i64 72
  store ptr %91, ptr %93, align 8
  %94 = load i32, ptr @proto_ngap, align 4
  %95 = load ptr, ptr %.0.i38, align 8
  tail call void @conversation_add_proto_data(ptr noundef %37, i32 noundef %94, ptr noundef %95)
  br label %96

96:                                               ; preds = %copy_address_wmem.exit40, %ngap_get_private_data.exit39
  call void @llvm.lifetime.start.p0(i64 208, ptr nonnull %5) #12
  call void @asn1_ctx_init(ptr noundef nonnull %5, i32 noundef 1, i1 noundef zeroext true, ptr noundef %1)
  %97 = load i32, ptr @hf_ngap_NGAP_PDU_PDU, align 4
  %98 = load i32, ptr @ett_ngap_NGAP_PDU, align 4
  %99 = call i32 @dissect_per_choice(ptr noundef %0, i32 noundef 0, ptr noundef nonnull %5, ptr noundef %15, i32 noundef %97, i32 noundef %98, ptr noundef nonnull @NGAP_PDU_choice, ptr noundef null)
  call void @llvm.lifetime.end.p0(i64 208, ptr nonnull %5) #12
  %100 = load i32, ptr @ngap_tap, align 4
  call void @tap_queue_packet(i32 noundef %100, ptr noundef %1, ptr noundef %11)
  %101 = call i32 @tvb_captured_length(ptr noundef %0)
  ret i32 %101
}